(dp1
S'output'
p2
S"<type 'exceptions.NameError'> name 'urlf' is not defined"
p3
sS'layer'
p4
S'C:\\Users\\Shubham\\Desktop\\web2py_hacku\\web2py\\applications\\evento\\views\\default/index.html'
p5
sS'code'
p6
S'left_sidebar_enabled,right_sidebar_enabled=False,False\nresponse.write(\'\\n\', escape=False)\nresponse.write(\'<!--[if HTML5]><![endif]-->\\n<!DOCTYPE html>\\n<!-- paulirish.com/2008/conditional-stylesheets-vs-css-hacks-answer-neither/ -->\\n<!--[if lt IE 7]><html class="ie ie6 ie-lte9 ie-lte8 ie-lte7 no-js" lang="\', escape=False)\nresponse.write(T.accepted_language or \'en\')\nresponse.write(\'"> <![endif]-->\\n<!--[if IE 7]><html class="ie ie7 ie-lte9 ie-lte8 ie-lte7 no-js" lang="\', escape=False)\nresponse.write(T.accepted_language or \'en\')\nresponse.write(\'"> <![endif]-->\\n<!--[if IE 8]><html class="ie ie8 ie-lte9 ie-lte8 no-js" lang="\', escape=False)\nresponse.write(T.accepted_language or \'en\')\nresponse.write(\'"> <![endif]-->\\n<!--[if IE 9]><html class="ie9 ie-lte9 no-js" lang="\', escape=False)\nresponse.write(T.accepted_language or \'en\')\nresponse.write(\'"> <![endif]-->\\n<!--[if (gt IE 9)|!(IE)]><!--> <html class="no-js" lang="\', escape=False)\nresponse.write(T.accepted_language or \'en\')\nresponse.write(\'"> <!--<![endif]-->\\n<head>\\n<title>\', escape=False)\nresponse.write(response.title or request.application)\nresponse.write(\'</title>\\n<script type="text/javascript" src="http://ajax.googleapis.com/ajax/libs/jquery/1.7/jquery.min.js"></script>\\n  <!--[if !HTML5]>\\n      <meta http-equiv="X-UA-Compatible" content="IE=edge\', escape=False)\nresponse.write(not request.is_local and \',chrome=1\' or \'\')\nresponse.write(\'">\\n  <![endif]-->\\n  <!-- www.phpied.com/conditional-comments-block-downloads/ -->\\n  <!-- Always force latest IE rendering engine\\n       (even in intranet) & Chrome Frame\\n       Remove this if you use the .htaccess -->\\n\\t   \\n  <meta charset="utf-8" />\\n\\n  <!-- http://dev.w3.org/html5/markup/meta.name.html -->\\n  <meta name="application-name" content="\', escape=False)\nresponse.write(request.application)\nresponse.write(\'" />\\n\\n  <!-- Speaking of Google, don\\\'t forget to set your site up:\\n       http://google.com/webmasters -->\\n  <meta name="google-site-verification" content="" />\\n\\n  <!--  Mobile Viewport Fix\\n        j.mp/mobileviewport & davidbcalhoun.com/2010/viewport-metatag\\n        device-width: Occupy full width of the screen in its current orientation\\n        initial-scale = 1.0 retains dimensions instead of zooming out if page height > device height\\n        user-scalable = yes allows the user to zoom in -->\\n  <meta name="viewport" content="width=device-width, initial-scale=1.0" />\\n\\n  <link rel="shortcut icon" href="\', escape=False)\nresponse.write(URL(\'static\',\'images/favicon.ico\'))\nresponse.write(\'" type="image/x-icon">\\n  <link rel="apple-touch-icon" href="\', escape=False)\nresponse.write(URL(\'static\',\'images/favicon.png\'))\nresponse.write(\'">\\n\\n  <!-- All JavaScript at the bottom, except for Modernizr which enables\\n       HTML5 elements & feature detects -->\\n  \', escape=False)\nes=db(db.events.id>0).select()\nresponse.write(\'\\n  \', escape=False)\nes=[("%s at <br>%s"% (e.name,e.venue+", "+e.state_)) for e in es]\nresponse.write(\'\\n  <script type="text/javascript">\\n  $("#search_bar").click(function(){\\n    console.log("Hello");\\n  });\\n  $(function(){\\n\\n    $("#search_bar").keypress(function(e) {\\n         if(e.which == 13) {\\n              if ($(this).val().length != 0 ){\\n                  setTimeout(function(){\\n                        var a=$("#search_bar").val();\\n                        console.log(a);\\n                        var url=a.split(" at");\\n                        var urlf=url[0].replace(" ","_");\\n                        console.log(urlf);\\n                        window.open(\', escape=False)\nresponse.write(URL(\'event\',urlf))\nresponse.write(\',"_self");\\n                    },400);\\n                }\\n          }\\n      });\\n  });\\n  \\n  </script>\\n  \', escape=False)\nresponse.menu += [\n(XML(\'<input id="search_bar" type="text" class="span3" style="margin: 0 auto;" data-provide="typeahead" data-items="%i" data-source="%s" data-source2="[&quot;Ahmedabad&quot;,&quot;Akola&quot;,&quot;Asansol&quot;,&quot;Aurangabad&quot;,&quot;Bangaluru&quot;,&quot;Baroda&quot;,&quot;Belgaon&quot;,&quot;Berhumpur&quot;,&quot;Calicut&quot;,&quot;Chennai&quot;,&quot;Chapra&quot;,&quot;Cherapunji&quot;]">\'% (len(es),str(es).replace(\'\\\'\',\'&quot;\')) ), False, \'\', []),\n(SPAN(\'Add New Event+\',_class=\'btn addnewbutton\',_style=\'margin-top:0px\'), False, URL(\'event\', \'event_add\'), [])\n]\nresponse.write(\'\\n    \', escape=False)\nif auth.is_logged_in():\n    response.write(\'\\n        \\n    \', escape=False)\n    pass\nresponse.write(\'\\n\\n  <!-- include stylesheets -->\\n  \', escape=False)\nresponse.files.append(URL(\'static\',\'css/web2py.css\'))\nresponse.files.append(URL(\'static\',\'metro-bootstrap/css/metro-bootstrap.css\'))\nresponse.files.append(URL(\'static\',\'css/bootstrap.min.css\'))\nresponse.files.append(URL(\'static\',\'css/bootstrap-responsive.min.css\'))\nresponse.files.append(URL(\'static\',\'css/web2py_bootstrap.css\'))\nresponse.files.append(URL(\'static\',\'css/style.css\'))\nresponse.write(\'\\n  <!-- <link href="\', escape=False)\nresponse.write(URL(\'static\',\'metro-bootstrap/css/metro-bootstrap.css\'))\nresponse.write(\'" rel="stylesheet" type="text/css"> -->\\n  <!-- <link rel="stylesheet" type="text/css" href="\', escape=False)\nresponse.write(URL(\'static\',\'css/style.css\'))\nresponse.write(\'"> -->\\n\\n  \', escape=False)\nresponse.write(\'<script type="text/javascript"><!--\\n    // These variables are used by the web2py_ajax_init function in web2py_ajax.js (which is loaded below).\\n    var w2p_ajax_confirm_message = "\', escape=False)\nresponse.write(T(\'Are you sure you want to delete this object?\'))\nresponse.write(\'";\\n    var w2p_ajax_date_format = "\', escape=False)\nresponse.write(T(\'%Y-%m-%d\'))\nresponse.write(\'";\\n    var w2p_ajax_datetime_format = "\', escape=False)\nresponse.write(T(\'%Y-%m-%d %H:%M:%S\'))\nresponse.write(\'";\\n    var ajax_error_500 = \\\'\', escape=False)\nresponse.write(XML(T(\'An error occured, please %s the page\') % A(T(\'reload\'), _href=URL(args=request.args, vars=request.get_vars))))\nresponse.write("\'\\n    //--></script>\\n", escape=False)\nresponse.files.insert(0,URL(\'static\',\'js/jquery.js\'))\nresponse.files.insert(1,URL(\'static\',\'css/calendar.css\'))\nresponse.files.insert(2,URL(\'static\',\'js/calendar.js\'))\nresponse.files.insert(3,URL(\'static\',\'js/web2py.js\'))\nresponse.include_meta()\nresponse.include_files()\nresponse.write(\'\\n\', escape=False)\nresponse.write(\'\\n\\n  \', escape=False)\n# using sidebars need to know what sidebar you want to use\nleft_sidebar_enabled = globals().get(\'left_sidebar_enabled\',False)\nright_sidebar_enabled = globals().get(\'right_sidebar_enabled\',False)\nmiddle_columns = {0:\'span12\',1:\'span8\',2:\'span6\'}[\n(left_sidebar_enabled and 1 or 0)+(right_sidebar_enabled and 1 or 0)]\nresponse.write(\'\\n\\n  <!-- uncomment here to load jquery-ui\\n       <link rel="stylesheet" href="http://ajax.googleapis.com/ajax/libs/jqueryui/1.8.16/themes/base/jquery-ui.css" type="text/css" media="all" />\\n       <script src="http://ajax.googleapis.com/ajax/libs/jqueryui/1.8.16/jquery-ui.min.js" type="text/javascript"></script>\\n       uncomment to load jquery-ui //-->\\n  <noscript><link href="\', escape=False)\nresponse.write(URL(\'static\', \'css/web2py_bootstrap_nojs.css\'))\nresponse.write(\'" rel="stylesheet" type="text/css" /></noscript>\\n  \', escape=False)\nresponse.write(\'\\n</head>\\n\\n<body>\\n  <!-- Navbar ================================================== -->\\n  <div class="navbar navbar-inverse navbar-fixed-top">\\n    <div class="flash">\', escape=False)\nresponse.write(response.flash or \'\')\nresponse.write(\'</div>\\n    <div class="navbar-inner">\\n      <div class="container">\\n        <!-- the next tag is necessary for bootstrap menus, do not remove -->\\n        <button type="button" class="btn btn-navbar" data-toggle="collapse" data-target=".nav-collapse">\\n          <span class="icon-bar"></span>\\n          <span class="icon-bar"></span>\\n          <span class="icon-bar"></span>\\n        </button>\\n  \', escape=False)\nresponse.write(response.logo or \'\')\nresponse.write(\'\\n        <ul id="navbar" class="nav pull-right">\', escape=False)\nresponse.write(\'auth\' in globals() and auth.navbar(mode="dropdown") or \'\')\nresponse.write(\'</ul>\\n        <div class="nav-collapse">\\n          \', escape=False)\nis_mobile=request.user_agent().is_mobile\nresponse.write(\'\\n          \', escape=False)\nif response.menu:\n    response.write(\'\\n              \', escape=False)\n    response.write(MENU(response.menu, _class=\'mobile-menu nav\' if is_mobile else \'nav\',mobile=is_mobile,li_class=\'dropdown\',ul_class=\'dropdown-menu\'))\n    response.write(\'\\n              \', escape=False)\n    if auth.is_logged_in():\n        response.write(\'\\n                <a href="#myModal" role="button" class="btn" data-toggle="modal" style="margin:10px 1px 2px -10px;border-radius:15px">i</a>\\n              \', escape=False)\n        pass\n    response.write(\'\\n          \', escape=False)\n    pass\nresponse.write(\'\\n\\n        </div><!--/.nav-collapse -->\\n      </div>\\n    </div>\\n  </div><!--/top navbar -->\\n\\n  <div class="container">\\n    <br><br><br>\\n\\n    <section id="main" class="main row">\\n        \', escape=False)\nif left_sidebar_enabled:\n    response.write(\'\\n        <div class="span3 left-sidebar">\\n            \', escape=False)\n    response.write(\'\\n            <h3>Left Sidebar</h3>\\n            <p></p>\\n            \', escape=False)\n    response.write(\'\\n        </div>\\n        \', escape=False)\n    pass\nresponse.write(\'\\n\\n        <div class="\', escape=False)\nresponse.write(middle_columns)\nresponse.write(\'">\\n            \', escape=False)\nresponse.write(\'\\n            \', escape=False)\nresponse.write(\'\\n<style type="text/css">\\n    .rbb{\\n        margin-top: 10px;\\n    }\\n</style>\\n<!-- Masthead ================================================== -->\\n    <!-- <header class="mastheader row" id="header">\\n      \', escape=False)\nif response.title:\n    response.write(\'\\n        <div class="span12">\\n            <div class="page-header">\\n                <h1>\\n                    \', escape=False)\n    response.write(response.title)\n    response.write(\'\\n                    <small>\', escape=False)\n    response.write(response.subtitle or \'\')\n    response.write(\'</small>\\n                </h1>\\n            </div>\\n        </div>\\n       \', escape=False)\n    pass\nresponse.write(\'\\n    </header> -->\\n\\n<!-- <h3>\', escape=False)\nresponse.write(message)\nresponse.write(\'</h3>\\n\\n<h4>\', escape=False)\nresponse.write(T(\'How did you get here?\'))\nresponse.write(\'</h4>\\n<ol>\\n  <li>\', escape=False)\nresponse.write(T(\'You are successfully running web2py\'))\nresponse.write(\'</li>\\n  <li>\', escape=False)\nresponse.write(XML(T(\'You visited the url %s\', A(request.env.path_info,_href=request.env.path_info))))\nresponse.write(\'</li>\\n  <li>\', escape=False)\nresponse.write(XML(T(\'Which called the function %s located in the file %s\',\n(A(request.function+\'()\',_href=\'#\'),\nA(\'web2py/applications/%(application)s/controllers/%(controller)s.py\'%request,\n_href=URL(\'admin\',\'default\',\'peek\', args=(request.application,\'controllers\',request.controller+\'.py\')))))))\nresponse.write(\'</li>\\n  <li>\', escape=False)\nresponse.write(XML(T(\'The output of the file is a dictionary that was rendered by the view %s\',\nA(\'web2py/applications/%(application)s/views/%(controller)s/index.html\'%request,\n_href=URL(\'admin\',\'default\',\'peek\',args=(request.application,\'views\',request.controller,\'index.html\'))))))\nresponse.write(\'</li>\\n  <li>\', escape=False)\nresponse.write(T(\'You can modify this application and adapt it to your needs\'))\nresponse.write(\'</li>\\n</ol>\\n -->\\n<!-- Right Side Bar -->\\n<!-- <center>\\n    <a href="" class=\\\'btn rbb\\\'>Take me to the event</a>\\n    <br>\\n    <a href="" class=\\\'btn rbb\\\'>Add to google calender</a>\\n    <br>\\n    <a href="" class=\\\'btn rbb\\\'>Add to Yahoo calender</a>\\n</center>\\n -->\\n <script type="text/javascript">\\n $(function() {\\n     $(\\\'.tile-double\\\').hover(function() {\\n        var tdouble = this;\\n        $(this).find(\\\'.tile-up\\\').slideUp(function() {\\n            $($(tdouble)).find(\\\'.tile-down\\\').slideDown();\\n        });\\n     });\\n\\n     $(\\\'.tile-double\\\').mouseleave(function() {\\n        var tdouble = this;\\n        $(this).find(\\\'.tile-up\\\').slideDown(function() {\\n            $(tdouble).find(\\\'.tile-up\\\').stop(true,true);\\n        });\\n     });\\n })\\n </script>\\n \', escape=False)\ntile_colors = ["tile-orange","tile-teal","tile-blue","tile-green","tile-red","tile-purple","tile-magenta",""]\nresponse.write(\' <!-- ,"tile-pink" -->\\n  Search with \\n<div class="btn-group">\\n  <button class="btn btn-default btn-sm dropdown-toggle" type="button" data-toggle="dropdown">\\n    Category <span class="caret"></span>\\n  </button>\\n  <ul class="dropdown-menu">\\n    <li><a href="\', escape=False)\nresponse.write(URL())\nresponse.write(\'">Science</a></li>\\n    <li><a href="\', escape=False)\nresponse.write(URL())\nresponse.write(\'">Culture</a></li>\\n    <li><a href="\', escape=False)\nresponse.write(URL())\nresponse.write(\'">Health</a></li>\\n    <li><a href="\', escape=False)\nresponse.write(URL())\nresponse.write(\'">Media</a></li>\\n    <li><a href="\', escape=False)\nresponse.write(URL())\nresponse.write(\'">Economic</a></li>\\n    <li><a href="\', escape=False)\nresponse.write(URL())\nresponse.write(\'">Energy</a></li>\\n    <li><a href="\', escape=False)\nresponse.write(URL())\nresponse.write(\'">Environment</a></li>\\n    <li><a href="\', escape=False)\nresponse.write(URL())\nresponse.write(\'">Industry</a></li>\\n    <li><a href="\', escape=False)\nresponse.write(URL())\nresponse.write(\'">Transport</a></li>\\n    <li><a href="\', escape=False)\nresponse.write(URL())\nresponse.write(\'">Institutions</a></li>\\n    <li><a href="\', escape=False)\nresponse.write(URL())\nresponse.write(\'">Agriculture</a></li>\\n    <li><a href="\', escape=False)\nresponse.write(URL())\nresponse.write(\'">Justice</a></li>\\n    <li><a href="\', escape=False)\nresponse.write(URL())\nresponse.write(\'">Competition</a></li>\\n  </ul>\\n</div>\\n <br>\\n <br>\\n<ul class="thumbnails" >\\n    \', escape=False)\nfor i,event in enumerate(events):\n    response.write("\\n        <li class=\'", escape=False)\n    response.write("tile tile-double %s" % tile_colors[i])\n    response.write(\'\\\' style="overflow:hidden">\\n            <a href="\', escape=False)\n    response.write(URL(\'events\',\'event/%s\'%event.name.replace(" ","_")))\n    response.write(\'" style="overflow:auto">\\n                <div class="tile-up">\\n                    \', escape=False)\n    image=event.image_url.split(\'.\')\n    response.write(\'\\n                    <table>\\n                        <tr>\\n                            <td>\\n                                <img src="\', escape=False)\n    response.write(\'%s_tn.%s\' % (image[0].lower(),image[1].lower()))\n    response.write(\'" style="max-width:110px;max-height:110px">\\n                            </td>\\n                            <td>\\n                                <h2>\', escape=False)\n    response.write(event.name.title())\n    response.write(\'</h2>\\n                                <h4>In \', escape=False)\n    response.write(readable_time(event.start_time))\n    response.write(\'</h4>\\n                            </td>\\n                        </tr>\\n                    </table>\\n                    <br>\\n                    <br>\\n                </div>\\n                <div class="tile-down" style="color:white">\\n                    <br>\\n                    <h4>\', escape=False)\n    response.write(event.venue)\n    response.write(\' \', escape=False)\n    response.write(event.institute)\n    response.write(\'</h4>\\n                    <div style="color:white">\\n                        In \', escape=False)\n    response.write(readable_time(event.start_time))\n    response.write(\' for \', escape=False)\n    response.write(readable_time(event.start_time,event.end_time))\n    response.write(\'\\n                    </div>            \\n                </div>\\n            </a>\\n        </li>\\n    \', escape=False)\n    pass\nresponse.write(\'\\n</ul>\\n<!-- \', escape=False)\nresponse.write(A(T("Administrative Interface"), _href=URL(\'admin\',\'default\',\'index\'), _class=\'btn\',\n_style=\'margin-top: 1em;\'))\nresponse.write(\'\\n<h6>\', escape=False)\nresponse.write(T("Don\'t know what to do?"))\nresponse.write(\'</h6>\\n<ul>\\n  <li>\', escape=False)\nresponse.write(A(T("Online examples"), _href=URL(\'examples\',\'default\',\'index\')))\nresponse.write(\'</li>\\n  <li><a href="http://web2py.com">web2py.com</a></li>\\n  <li><a href="http://web2py.com/book">\', escape=False)\nresponse.write(T(\'Documentation\'))\nresponse.write(\'</a></li>\\n</ul>\\n -->\\n\', escape=False)\nresponse.write(\'\\n\', escape=False)\nresponse.write(\'\\n            \', escape=False)\nresponse.write(\'\\n        </div>\\n\\n        \', escape=False)\nif right_sidebar_enabled:\n    response.write(\'\\n        <div class="span4" id="right_side_bar">\\n            \', escape=False)\n    response.write(\'\\n\', escape=False)\n    response.write(\'\\n        </div>\\n        \', escape=False)\n    pass\nresponse.write(\'\\n    </section><!--/main-->\\n\\n    <!-- Footer ================================================== -->\\n    <div class="row">\\n        <footer class="footer span12" id="footer">\\n            <div class="footer-content">\\n                \', escape=False)\nresponse.write(\' <!-- this is default footer -->\\n                <div class="copyright pull-left">\', escape=False)\nresponse.write(T(\'Copyright\'))\nresponse.write(\' &#169; \', escape=False)\nresponse.write(request.now.year)\nresponse.write(\'</div>\\n                <div id="poweredBy" class="pull-right">\\n                    <a href="\', escape=False)\nresponse.write(URL(\'default\',\'dashboard\'))\nresponse.write(\'">Dashboard</a> for Organisers &nbsp;&nbsp;&nbsp;&nbsp;&nbsp;\\n                    \', escape=False)\nresponse.write(T(\'Powered by\'))\nresponse.write(\'\\n                    <a href="http://www.cse.iitd.ernet.in/~cs5110272">Abhishek</a>\\n                    , \\n                    <a href="http://www.cse.iitd.ernet.in/~cs5110278">Mayank</a>\\n                    , \\n                    <a href="http://www.cse.iitd.ernet.in/~cs5110295">Sharad</a>\\n                    &amp;\\n                    <a href="http://www.cse.iitd.ernet.in/~cs5110300">Shubham</a>\\n                </div>\\n                \', escape=False)\nresponse.write(\'\\n            </div>\\n        </footer>\\n    </div>\\n\\n  </div> <!-- /container -->\\n\\n  <!-- The javascript =============================================\\n       (Placed at the end of the document so the pages load faster) -->\\n  <script src="\', escape=False)\nresponse.write(URL(\'static\',\'js/bootstrap.min.js\'))\nresponse.write(\'"></script>\\n  <script src="\', escape=False)\nresponse.write(URL(\'static\',\'js/web2py_bootstrap.js\'))\nresponse.write(\'"></script>\\n  <!--[if lt IE 7 ]>\\n      <script src="\', escape=False)\nresponse.write(URL(\'static\',\'js/dd_belatedpng.js\'))\nresponse.write(\'"></script>\\n      <script> DD_belatedPNG.fix(\\\'img, .png_bg\\\'); //fix any <img> or .png_bg background-images </script>\\n      <![endif]-->\\n  \\n  \', escape=False)\nif response.google_analytics_id:\n    response.write(\'\\n  <script src="\', escape=False)\n    response.write(URL(\'static\',\'js/analytics.min.js\'))\n    response.write(\'"></script>\\n  <script type="text/javascript">\\n  analytics.initialize({\\n    \\\'Google Analytics\\\':{trackingId:\\\'\', escape=False)\n    response.write(response.google_analytics_id)\n    response.write("\'} \\n  });</script>\\n  ", escape=False)\n    pass\nresponse.write(\'\\n  <script src="\', escape=False)\nresponse.write(URL(\'static\',\'js/share.js\',vars=dict(static=URL(\'static\',\'images\'))))\nresponse.write(\'"></script>\\n  <!-- Button to trigger modal -->\\n\\n\\n<!-- Modal -->\\n\', escape=False)\nif auth.is_logged_in():\n    response.write(\'\\n    <div id="myModal" class="modal hide fade" tabindex="-1" role="dialog" aria-labelledby="myModalLabel" aria-hidden="true">\\n      <div class="modal-header">\\n        <button type="button" class="close" data-dismiss="modal" aria-hidden="true">\\xc3\\x97</button>\\n        <h3 id="myModalLabel">Notifications</h3>\\n      </div>\\n      <div class="modal-body">\\n        \', escape=False)\n    noti = db(db.notifications.user_==auth.user.id).select()\n    response.write(\'\\n        \', escape=False)\n    for notifi in noti:\n        response.write(\'\\n        <h4>\', escape=False)\n        response.write(XML(notifi.description))\n        response.write(\'</h4><hr>\\n        \', escape=False)\n        pass\n    response.write(\'\\n      </div>\\n      <div class="modal-footer">\\n        <button class="btn" data-dismiss="modal" aria-hidden="true">Close</button>\\n        <button class="btn btn-primary">Clear notifications</button>\\n      </div>\\n    </div>\\n\', escape=False)\n    pass\nresponse.write(\'\\n  <script src="\', escape=False)\nresponse.write(URL(\'static\',\'js/modernizr.custom.js\'))\nresponse.write(\'"></script>\\n  <script src="\', escape=False)\nresponse.write(URL(\'static\',\'js/bootstrap-typeahead.js\'))\nresponse.write(\'"></script>\\n</body>\\n</html>\\n\\n\', escape=False)'
p7
sS'snapshot'
p8
(dp9
S'exception'
p10
(dp11
S'__hash__'
p12
S"<method-wrapper '__hash__' of exceptions.NameError object>"
p13
sS'__setattr__'
p14
S"<method-wrapper '__setattr__' of exceptions.NameError object>"
p15
sS'__reduce_ex__'
p16
S'<built-in method __reduce_ex__ of exceptions.NameError object>'
p17
sS'__getslice__'
p18
S"<method-wrapper '__getslice__' of exceptions.NameError object>"
p19
sS'__getitem__'
p20
S"<method-wrapper '__getitem__' of exceptions.NameError object>"
p21
sS'__setstate__'
p22
S'<built-in method __setstate__ of exceptions.NameError object>'
p23
sS'__reduce__'
p24
S'<built-in method __reduce__ of exceptions.NameError object>'
p25
sS'__str__'
p26
S"<method-wrapper '__str__' of exceptions.NameError object>"
p27
sS'__format__'
p28
S'<built-in method __format__ of exceptions.NameError object>'
p29
sS'__getattribute__'
p30
S"<method-wrapper '__getattribute__' of exceptions.NameError object>"
p31
sS'__class__'
p32
S"<type 'exceptions.NameError'>"
p33
sS'__unicode__'
p34
S'<built-in method __unicode__ of exceptions.NameError object>'
p35
sS'__delattr__'
p36
S"<method-wrapper '__delattr__' of exceptions.NameError object>"
p37
sS'__subclasshook__'
p38
S'<built-in method __subclasshook__ of type object>'
p39
sS'__repr__'
p40
S"<method-wrapper '__repr__' of exceptions.NameError object>"
p41
sS'args'
p42
S'("name \'urlf\' is not defined",)'
p43
sS'__dict__'
p44
S'{}'
p45
sS'__sizeof__'
p46
S'<built-in method __sizeof__ of exceptions.NameError object>'
p47
sS'__doc__'
p48
S"'Name not found globally.'"
p49
sS'__init__'
p50
S"<method-wrapper '__init__' of exceptions.NameError object>"
p51
sS'__new__'
p52
S'<built-in method __new__ of type object>'
p53
ssS'evalue'
p54
S"name 'urlf' is not defined"
p55
sS'request'
p56
cgluon.html
XML_unpickle
p57
(S's#N\x00\x00<div><table><tr><td style="font-weight:bold;vertical-align:top">ajax</td><td valign="top">:</td><td><div>False</div></td></tr><tr><td style="font-weight:bold;vertical-align:top">application</td><td valign="top">:</td><td><div>evento</div></td></tr><tr><td style="font-weight:bold;vertical-align:top">args</td><td valign="top">:</td><td><div><table></table></div></td></tr><tr><td style="font-weight:bold;vertical-align:top">body</td><td valign="top">:</td><td><div>&lt;cStringIO.StringO object at 0x067FD2E0&gt;</div></td></tr><tr><td style="font-weight:bold;vertical-align:top">cid</td><td valign="top">:</td><td><div>None</div></td></tr><tr><td style="font-weight:bold;vertical-align:top">client</td><td valign="top">:</td><td><div>127.0.0.1</div></td></tr><tr><td style="font-weight:bold;vertical-align:top">controller</td><td valign="top">:</td><td><div>default</div></td></tr><tr><td style="font-weight:bold;vertical-align:top">cookies</td><td valign="top">:</td><td><div><table><tr><td style="font-weight:bold;vertical-align:top">session_id_evento</td><td valign="top">:</td><td><div>127.0.0.1-7249b82c-65ab-4266-a5c1-1f59495110eb<table><tr><td style="font-weight:bold;vertical-align:top">comment</td><td valign="top">:</td><td><div></div></td></tr><tr><td style="font-weight:bold;vertical-align:top">domain</td><td valign="top">:</td><td><div></div></td></tr><tr><td style="font-weight:bold;vertical-align:top">expires</td><td valign="top">:</td><td><div></div></td></tr><tr><td style="font-weight:bold;vertical-align:top">httponly</td><td valign="top">:</td><td><div></div></td></tr><tr><td style="font-weight:bold;vertical-align:top">max-age</td><td valign="top">:</td><td><div></div></td></tr><tr><td style="font-weight:bold;vertical-align:top">path</td><td valign="top">:</td><td><div></div></td></tr><tr><td style="font-weight:bold;vertical-align:top">secure</td><td valign="top">:</td><td><div></div></td></tr><tr><td style="font-weight:bold;vertical-align:top">version</td><td valign="top">:</td><td><div></div></td></tr></table></div></td></tr></table></div></td></tr><tr><td style="font-weight:bold;vertical-align:top">env</td><td valign="top">:</td><td><div><table><tr><td style="font-weight:bold;vertical-align:top">app_folders</td><td valign="top">:</td><td><div>set([&#x27;C:\\\\Users\\\\Shubham\\\\Desktop\\\\web2py_hacku\\\\web2py\\\\applications\\\\evento\\\\&#x27;])</div></td></tr><tr><td style="font-weight:bold;vertical-align:top">applications_parent</td><td valign="top">:</td><td><div>C:\\Users\\Shubham\\Desktop\\web2py_hacku\\web2py</div></td></tr><tr><td style="font-weight:bold;vertical-align:top">cmd_args</td><td valign="top">:</td><td><div><table></table></div></td></tr><tr><td style="font-weight:bold;vertical-align:top">cmd_options</td><td valign="top">:</td><td><div>&lt;Values at 0x22b6558: {&#x27;verbose&#x27;: False, &#x27;ip&#x27;: &#x27;127.0.0.1&#x27;, &#x27;with_scheduler&#x27;: False, &#x27;ips&#x27;: [], &#x27;shutdown_timeout&#x27;: 5, &#x27;taskbar&#x27;: False, &#x27;with_coverage&#x27;: False, &#x27;port&#x27;: 8000, &#x27;maxthreads&#x27;: None, &#x27;softcron&#x27;: False, &#x27;server_name&#x27;: &#x27;Shubham-PC&#x27;, &#x27;bpython&#x27;: False, &#x27;nogui&#x27;: False, &#x27;pid_filename&#x27;: &#x27;httpserver.pid&#x27;, &#x27;extcron&#x27;: False, &#x27;runcron&#x27;: False, &#x27;run_system_tests&#x27;: False, &#x27;test&#x27;: None, &#x27;folder&#x27;: &#x27;C:\\\\Users\\\\Shubham\\\\Desktop\\\\web2py_hacku\\\\web2py&#x27;, &#x27;config&#x27;: &#x27;&#x27;, &#x27;import_models&#x27;: False, &#x27;winservice&#x27;: &#x27;&#x27;, &#x27;shell&#x27;: None, &#x27;run&#x27;: &#x27;&#x27;, &#x27;log_filename&#x27;: &#x27;httpserver.log&#x27;, &#x27;debuglevel&#x27;: 30, &#x27;args&#x27;: [&#x27;&#x27;], &#x27;socket_timeout&#x27;: 5, &#x27;ssl_ca_certificate&#x27;: None, &#x27;scheduler&#x27;: None, &#x27;profiler_filename&#x27;: None, &#x27;ssl_private_key&#x27;: &#x27;&#x27;, &#x27;scheduler_groups&#x27;: None, &#x27;password&#x27;: &#x27;&lt;ask&gt;&#x27;, &#x27;request_queue_size&#x27;: 5, &#x27;ssl_certificate&#x27;: &#x27;&#x27;, &#x27;cronjob&#x27;: False, &#x27;numthreads&#x27;: None, &#x27;quiet&#x27;: False, &#x27;interfaces&#x27;: None, &#x27;minthreads&#x27;: None, &#x27;timeout&#x27;: 10, &#x27;plain&#x27;: False, &#x27;nobanner&#x27;: False}&gt;</div></td></tr><tr><td style="font-weight:bold;vertical-align:top">db_sessions</td><td valign="top">:</td><td><div>set([])</div></td></tr><tr><td style="font-weight:bold;vertical-align:top">debugging</td><td valign="top">:</td><td><div>False</div></td></tr><tr><td style="font-weight:bold;vertical-align:top">gluon_parent</td><td valign="top">:</td><td><div>C:\\Users\\Shubham\\Desktop\\web2py_hacku\\web2py</div></td></tr><tr><td style="font-weight:bold;vertical-align:top">http_accept</td><td valign="top">:</td><td><div>text/html,application/xhtml+xml,application/xml;q=0.9,*/*;q=0.8</div></td></tr><tr><td style="font-weight:bold;vertical-align:top">http_accept_encoding</td><td valign="top">:</td><td><div>gzip,deflate,sdch</div></td></tr><tr><td style="font-weight:bold;vertical-align:top">http_accept_language</td><td valign="top">:</td><td><div>en-US,en;q=0.8</div></td></tr><tr><td style="font-weight:bold;vertical-align:top">http_cache_control</td><td valign="top">:</td><td><div>no-cache</div></td></tr><tr><td style="font-weight:bold;vertical-align:top">http_connection</td><td valign="top">:</td><td><div>keep-alive</div></td></tr><tr><td style="font-weight:bold;vertical-align:top">http_cookie</td><td valign="top">:</td><td><div>session_id_evento=127.0.0.1-7249b82c-65ab-4266-a5c1-1f59495110eb</div></td></tr><tr><td style="font-weight:bold;vertical-align:top">http_host</td><td valign="top">:</td><td><div>127.0.0.1:8000</div></td></tr><tr><td style="font-weight:bold;vertical-align:top">http_pragma</td><td valign="top">:</td><td><div>no-cache</div></td></tr><tr><td style="font-weight:bold;vertical-align:top">http_referer</td><td valign="top">:</td><td><div>http://127.0.0.1:8000/evento/event/event_add</div></td></tr><tr><td style="font-weight:bold;vertical-align:top">http_user_agent</td><td valign="top">:</td><td><div>Mozilla/5.0 (Windows NT 6.1; WOW64) AppleWebKit/537.36 (KHTML, like Gecko) Chrome/28.0.1500.95 Safari/537.36</div></td></tr><tr><td style="font-weight:bold;vertical-align:top">is_jython</td><td valign="top">:</td><td><div>False</div></td></tr><tr><td style="font-weight:bold;vertical-align:top">is_pypy</td><td valign="top">:</td><td><div>False</div></td></tr><tr><td style="font-weight:bold;vertical-align:top">local_hosts</td><td valign="top">:</td><td><div><table><tr><td><div>2001:0:4137:9e76:303e:1197:f535:723c</div></td></tr><tr><td><div>Shubham-PC.iitd.ernet.in</div></td></tr><tr><td><div>::ffff:127.0.0.1</div></td></tr><tr><td><div>::1</div></td></tr><tr><td><div>Shubham-PC</div></td></tr><tr><td><div>127.0.0.1</div></td></tr><tr><td><div>10.202.141.195</div></td></tr><tr><td><div>fe80::303e:1197:f535:723c%15</div></td></tr><tr><td><div>fe80::88e4:3213:1c72:e013%11</div></td></tr></table></div></td></tr><tr><td style="font-weight:bold;vertical-align:top">path_info</td><td valign="top">:</td><td><div>/evento/default/index</div></td></tr><tr><td style="font-weight:bold;vertical-align:top">query_string</td><td valign="top">:</td><td><div></div></td></tr><tr><td style="font-weight:bold;vertical-align:top">remote_addr</td><td valign="top">:</td><td><div>127.0.0.1</div></td></tr><tr><td style="font-weight:bold;vertical-align:top">remote_port</td><td valign="top">:</td><td><div>49873</div></td></tr><tr><td style="font-weight:bold;vertical-align:top">request_method</td><td valign="top">:</td><td><div>GET</div></td></tr><tr><td style="font-weight:bold;vertical-align:top">request_uri</td><td valign="top">:</td><td><div>/evento/default/index</div></td></tr><tr><td style="font-weight:bold;vertical-align:top">script_name</td><td valign="top">:</td><td><div></div></td></tr><tr><td style="font-weight:bold;vertical-align:top">server_name</td><td valign="top">:</td><td><div>Shubham-PC</div></td></tr><tr><td style="font-weight:bold;vertical-align:top">server_port</td><td valign="top">:</td><td><div>8000</div></td></tr><tr><td style="font-weight:bold;vertical-align:top">server_protocol</td><td valign="top">:</td><td><div>HTTP/1.1</div></td></tr><tr><td style="font-weight:bold;vertical-align:top">server_software</td><td valign="top">:</td><td><div>Rocket 1.2.6</div></td></tr><tr><td style="font-weight:bold;vertical-align:top">web2py_path</td><td valign="top">:</td><td><div>C:\\Users\\Shubham\\Desktop\\web2py_hacku\\web2py</div></td></tr><tr><td style="font-weight:bold;vertical-align:top">web2py_version</td><td valign="top">:</td><td><div>2.5.1-stable+timestamp.2013.06.06.15.39.19</div></td></tr><tr><td style="font-weight:bold;vertical-align:top">wsgi_errors</td><td valign="top">:</td><td><div>&lt;open file &#x27;&lt;stderr&gt;&#x27;, mode &#x27;w&#x27; at 0x01F950D0&gt;</div></td></tr><tr><td style="font-weight:bold;vertical-align:top">wsgi_file_wrapper</td><td valign="top">:</td><td><div>&lt;class wsgiref.util.FileWrapper at 0x02D55148&gt;</div></td></tr><tr><td style="font-weight:bold;vertical-align:top">wsgi_input</td><td valign="top">:</td><td><div>&lt;socket._fileobject object at 0x0634EF70&gt;</div></td></tr><tr><td style="font-weight:bold;vertical-align:top">wsgi_multiprocess</td><td valign="top">:</td><td><div>False</div></td></tr><tr><td style="font-weight:bold;vertical-align:top">wsgi_multithread</td><td valign="top">:</td><td><div>True</div></td></tr><tr><td style="font-weight:bold;vertical-align:top">wsgi_run_once</td><td valign="top">:</td><td><div>False</div></td></tr><tr><td style="font-weight:bold;vertical-align:top">wsgi_url_scheme</td><td valign="top">:</td><td><div>http</div></td></tr><tr><td style="font-weight:bold;vertical-align:top">wsgi_version</td><td valign="top">:</td><td><div><table><tr><td><div>1</div></td></tr><tr><td><div>0</div></td></tr></table></div></td></tr></table></div></td></tr><tr><td style="font-weight:bold;vertical-align:top">extension</td><td valign="top">:</td><td><div>html</div></td></tr><tr><td style="font-weight:bold;vertical-align:top">folder</td><td valign="top">:</td><td><div>C:\\Users\\Shubham\\Desktop\\web2py_hacku\\web2py\\applications\\evento\\</div></td></tr><tr><td style="font-weight:bold;vertical-align:top">function</td><td valign="top">:</td><td><div>index</div></td></tr><tr><td style="font-weight:bold;vertical-align:top">get_vars</td><td valign="top">:</td><td><div><table></table></div></td></tr><tr><td style="font-weight:bold;vertical-align:top">global_settings</td><td valign="top">:</td><td><div><table><tr><td style="font-weight:bold;vertical-align:top">app_folders</td><td valign="top">:</td><td><div>set([&#x27;C:\\\\Users\\\\Shubham\\\\Desktop\\\\web2py_hacku\\\\web2py\\\\applications\\\\evento\\\\&#x27;])</div></td></tr><tr><td style="font-weight:bold;vertical-align:top">applications_parent</td><td valign="top">:</td><td><div>C:\\Users\\Shubham\\Desktop\\web2py_hacku\\web2py</div></td></tr><tr><td style="font-weight:bold;vertical-align:top">cmd_args</td><td valign="top">:</td><td><div><table></table></div></td></tr><tr><td style="font-weight:bold;vertical-align:top">cmd_options</td><td valign="top">:</td><td><div>&lt;Values at 0x22b6558: {&#x27;verbose&#x27;: False, &#x27;ip&#x27;: &#x27;127.0.0.1&#x27;, &#x27;with_scheduler&#x27;: False, &#x27;ips&#x27;: [], &#x27;shutdown_timeout&#x27;: 5, &#x27;taskbar&#x27;: False, &#x27;with_coverage&#x27;: False, &#x27;port&#x27;: 8000, &#x27;maxthreads&#x27;: None, &#x27;softcron&#x27;: False, &#x27;server_name&#x27;: &#x27;Shubham-PC&#x27;, &#x27;bpython&#x27;: False, &#x27;nogui&#x27;: False, &#x27;pid_filename&#x27;: &#x27;httpserver.pid&#x27;, &#x27;extcron&#x27;: False, &#x27;runcron&#x27;: False, &#x27;run_system_tests&#x27;: False, &#x27;test&#x27;: None, &#x27;folder&#x27;: &#x27;C:\\\\Users\\\\Shubham\\\\Desktop\\\\web2py_hacku\\\\web2py&#x27;, &#x27;config&#x27;: &#x27;&#x27;, &#x27;import_models&#x27;: False, &#x27;winservice&#x27;: &#x27;&#x27;, &#x27;shell&#x27;: None, &#x27;run&#x27;: &#x27;&#x27;, &#x27;log_filename&#x27;: &#x27;httpserver.log&#x27;, &#x27;debuglevel&#x27;: 30, &#x27;args&#x27;: [&#x27;&#x27;], &#x27;socket_timeout&#x27;: 5, &#x27;ssl_ca_certificate&#x27;: None, &#x27;scheduler&#x27;: None, &#x27;profiler_filename&#x27;: None, &#x27;ssl_private_key&#x27;: &#x27;&#x27;, &#x27;scheduler_groups&#x27;: None, &#x27;password&#x27;: &#x27;&lt;ask&gt;&#x27;, &#x27;request_queue_size&#x27;: 5, &#x27;ssl_certificate&#x27;: &#x27;&#x27;, &#x27;cronjob&#x27;: False, &#x27;numthreads&#x27;: None, &#x27;quiet&#x27;: False, &#x27;interfaces&#x27;: None, &#x27;minthreads&#x27;: None, &#x27;timeout&#x27;: 10, &#x27;plain&#x27;: False, &#x27;nobanner&#x27;: False}&gt;</div></td></tr><tr><td style="font-weight:bold;vertical-align:top">db_sessions</td><td valign="top">:</td><td><div>set([])</div></td></tr><tr><td style="font-weight:bold;vertical-align:top">debugging</td><td valign="top">:</td><td><div>False</div></td></tr><tr><td style="font-weight:bold;vertical-align:top">gluon_parent</td><td valign="top">:</td><td><div>C:\\Users\\Shubham\\Desktop\\web2py_hacku\\web2py</div></td></tr><tr><td style="font-weight:bold;vertical-align:top">is_jython</td><td valign="top">:</td><td><div>False</div></td></tr><tr><td style="font-weight:bold;vertical-align:top">is_pypy</td><td valign="top">:</td><td><div>False</div></td></tr><tr><td style="font-weight:bold;vertical-align:top">local_hosts</td><td valign="top">:</td><td><div><table><tr><td><div>2001:0:4137:9e76:303e:1197:f535:723c</div></td></tr><tr><td><div>Shubham-PC.iitd.ernet.in</div></td></tr><tr><td><div>::ffff:127.0.0.1</div></td></tr><tr><td><div>::1</div></td></tr><tr><td><div>Shubham-PC</div></td></tr><tr><td><div>127.0.0.1</div></td></tr><tr><td><div>10.202.141.195</div></td></tr><tr><td><div>fe80::303e:1197:f535:723c%15</div></td></tr><tr><td><div>fe80::88e4:3213:1c72:e013%11</div></td></tr></table></div></td></tr><tr><td style="font-weight:bold;vertical-align:top">web2py_version</td><td valign="top">:</td><td><div>2.5.1-stable+timestamp.2013.06.06.15.39.19</div></td></tr></table></div></td></tr><tr><td style="font-weight:bold;vertical-align:top">is_https</td><td valign="top">:</td><td><div>False</div></td></tr><tr><td style="font-weight:bold;vertical-align:top">is_local</td><td valign="top">:</td><td><div>True</div></td></tr><tr><td style="font-weight:bold;vertical-align:top">is_restful</td><td valign="top">:</td><td><div>False</div></td></tr><tr><td style="font-weight:bold;vertical-align:top">now</td><td valign="top">:</td><td><div>datetime.datetime(2013, 8, 11, 9, 46, 59, 639000)</div></td></tr><tr><td style="font-weight:bold;vertical-align:top">post_vars</td><td valign="top">:</td><td><div><table></table></div></td></tr><tr><td style="font-weight:bold;vertical-align:top">raw_args</td><td valign="top">:</td><td><div></div></td></tr><tr><td style="font-weight:bold;vertical-align:top">raw_extension</td><td valign="top">:</td><td><div>None</div></td></tr><tr><td style="font-weight:bold;vertical-align:top">url</td><td valign="top">:</td><td><div>/evento/default/index</div></td></tr><tr><td style="font-weight:bold;vertical-align:top">utcnow</td><td valign="top">:</td><td><div>datetime.datetime(2013, 8, 11, 16, 46, 59, 639000)</div></td></tr><tr><td style="font-weight:bold;vertical-align:top">uuid</td><td valign="top">:</td><td><div>evento/127.0.0.1.2013-08-11.09-46-59.f3298539-a005-4353-b4ee-44d77e647992</div></td></tr><tr><td style="font-weight:bold;vertical-align:top">vars</td><td valign="top">:</td><td><div><table></table></div></td></tr><tr><td style="font-weight:bold;vertical-align:top">wsgi</td><td valign="top">:</td><td><div><table><tr><td style="font-weight:bold;vertical-align:top">environ</td><td valign="top">:</td><td><div><table><tr><td style="font-weight:bold;vertical-align:top">HTTP_ACCEPT</td><td valign="top">:</td><td><div>text/html,application/xhtml+xml,application/xml;q=0.9,*/*;q=0.8</div></td></tr><tr><td style="font-weight:bold;vertical-align:top">HTTP_ACCEPT_ENCODING</td><td valign="top">:</td><td><div>gzip,deflate,sdch</div></td></tr><tr><td style="font-weight:bold;vertical-align:top">HTTP_ACCEPT_LANGUAGE</td><td valign="top">:</td><td><div>en-US,en;q=0.8</div></td></tr><tr><td style="font-weight:bold;vertical-align:top">HTTP_CACHE_CONTROL</td><td valign="top">:</td><td><div>no-cache</div></td></tr><tr><td style="font-weight:bold;vertical-align:top">HTTP_CONNECTION</td><td valign="top">:</td><td><div>keep-alive</div></td></tr><tr><td style="font-weight:bold;vertical-align:top">HTTP_COOKIE</td><td valign="top">:</td><td><div>session_id_evento=127.0.0.1-7249b82c-65ab-4266-a5c1-1f59495110eb</div></td></tr><tr><td style="font-weight:bold;vertical-align:top">HTTP_HOST</td><td valign="top">:</td><td><div>127.0.0.1:8000</div></td></tr><tr><td style="font-weight:bold;vertical-align:top">HTTP_PRAGMA</td><td valign="top">:</td><td><div>no-cache</div></td></tr><tr><td style="font-weight:bold;vertical-align:top">HTTP_REFERER</td><td valign="top">:</td><td><div>http://127.0.0.1:8000/evento/event/event_add</div></td></tr><tr><td style="font-weight:bold;vertical-align:top">HTTP_USER_AGENT</td><td valign="top">:</td><td><div>Mozilla/5.0 (Windows NT 6.1; WOW64) AppleWebKit/537.36 (KHTML, like Gecko) Chrome/28.0.1500.95 Safari/537.36</div></td></tr><tr><td style="font-weight:bold;vertical-align:top">PATH_INFO</td><td valign="top">:</td><td><div>/evento/default/index</div></td></tr><tr><td style="font-weight:bold;vertical-align:top">QUERY_STRING</td><td valign="top">:</td><td><div></div></td></tr><tr><td style="font-weight:bold;vertical-align:top">REMOTE_ADDR</td><td valign="top">:</td><td><div>127.0.0.1</div></td></tr><tr><td style="font-weight:bold;vertical-align:top">REMOTE_PORT</td><td valign="top">:</td><td><div>49873</div></td></tr><tr><td style="font-weight:bold;vertical-align:top">REQUEST_METHOD</td><td valign="top">:</td><td><div>GET</div></td></tr><tr><td style="font-weight:bold;vertical-align:top">REQUEST_URI</td><td valign="top">:</td><td><div>/evento/default/index</div></td></tr><tr><td style="font-weight:bold;vertical-align:top">SCRIPT_NAME</td><td valign="top">:</td><td><div></div></td></tr><tr><td style="font-weight:bold;vertical-align:top">SERVER_NAME</td><td valign="top">:</td><td><div>Shubham-PC</div></td></tr><tr><td style="font-weight:bold;vertical-align:top">SERVER_PORT</td><td valign="top">:</td><td><div>8000</div></td></tr><tr><td style="font-weight:bold;vertical-align:top">SERVER_PROTOCOL</td><td valign="top">:</td><td><div>HTTP/1.1</div></td></tr><tr><td style="font-weight:bold;vertical-align:top">SERVER_SOFTWARE</td><td valign="top">:</td><td><div>Rocket 1.2.6</div></td></tr><tr><td style="font-weight:bold;vertical-align:top">wsgi.errors</td><td valign="top">:</td><td><div>&lt;open file &#x27;&lt;stderr&gt;&#x27;, mode &#x27;w&#x27; at 0x01F950D0&gt;</div></td></tr><tr><td style="font-weight:bold;vertical-align:top">wsgi.file_wrapper</td><td valign="top">:</td><td><div>&lt;class wsgiref.util.FileWrapper at 0x02D55148&gt;</div></td></tr><tr><td style="font-weight:bold;vertical-align:top">wsgi.input</td><td valign="top">:</td><td><div>&lt;cStringIO.StringO object at 0x067FD2E0&gt;</div></td></tr><tr><td style="font-weight:bold;vertical-align:top">wsgi.multiprocess</td><td valign="top">:</td><td><div>False</div></td></tr><tr><td style="font-weight:bold;vertical-align:top">wsgi.multithread</td><td valign="top">:</td><td><div>True</div></td></tr><tr><td style="font-weight:bold;vertical-align:top">wsgi.run_once</td><td valign="top">:</td><td><div>False</div></td></tr><tr><td style="font-weight:bold;vertical-align:top">wsgi.url_scheme</td><td valign="top">:</td><td><div>http</div></td></tr><tr><td style="font-weight:bold;vertical-align:top">wsgi.version</td><td valign="top">:</td><td><div>1</div></td></tr></table></div></td></tr></table></div></td></tr></table></div>'
tRp58
sS'frames'
p59
(lp60
(dp61
S'file'
p62
S'C:\\home\\mdipierro\\make_web2py\\web2py\\gluon\\restricted.py'
p63
sS'dump'
p64
(dp65
sS'lnum'
p66
I212
sS'lines'
p67
(dp68
sS'call'
p69
S'(code=\'left_sidebar_enabled,right_sidebar_enabled=False..."></script>\\\\n</body>\\\\n</html>\\\\n\\\\n\\\', escape=False)\', environment={\'A\': <class \'gluon.html.A\'>, \'ANY_OF\': <class \'gluon.validators.ANY_OF\'>, \'Auth\': <class \'gluon.tools.Auth\'>, \'B\': <class \'gluon.html.B\'>, \'BEAUTIFY\': <class \'gluon.html.BEAUTIFY\'>, \'BODY\': <class \'gluon.html.BODY\'>, \'BR\': <class \'gluon.html.BR\'>, \'BUTTON\': <class \'gluon.html.BUTTON\'>, \'CAT\': <class \'gluon.html.CAT\'>, \'CENTER\': <class \'gluon.html.CENTER\'>, ...}, layer=r\'C:\\Users\\Shubham\\Desktop\\web2py_hacku\\web2py\\applications\\evento\\views\\default/index.html\')'
p70
sS'func'
p71
S'restricted'
p72
sa(dp73
g62
S'C:\\Users\\Shubham\\Desktop\\web2py_hacku\\web2py\\applications\\evento\\views\\default\\index.html'
p74
sg64
(dp75
sg66
I28
sg67
(dp76
I32
S"(SPAN('Add New Event+',_class='btn addnewbutton',_style='margin-top:0px'), False, URL('event', 'event_add'), [])"
p77
sI33
S']'
sI34
S"response.write('\\n    ', escape=False)"
p78
sI35
S'if auth.is_logged_in():'
p79
sI36
S"    response.write('\\n        \\n    ', escape=False)"
p80
sI37
S'    pass'
p81
sI38
S"response.write('\\n\\n  <!-- include stylesheets -->\\n  ', escape=False)"
p82
sI19
S'response.write(\'" />\\n\\n  <!-- Speaking of Google, don\\\'t forget to set your site up:\\n       http://google.com/webmasters -->\\n  <meta name="google-site-verification" content="" />\\n\\n  <!--  Mobile Viewport Fix\\n        j.mp/mobileviewport & davidbcalhoun.com/2010/viewport-metatag\\n        device-width: Occupy full width of the screen in its current orientation\\n        initial-scale = 1.0 retains dimensions instead of zooming out if page height > device height\\n        user-scalable = yes allows the user to zoom in -->\\n  <meta name="viewport" content="width=device-width, initial-scale=1.0" />\\n\\n  <link rel="shortcut icon" href="\', escape=False)'
p83
sI20
S"response.write(URL('static','images/favicon.ico'))"
p84
sI21
S'response.write(\'" type="image/x-icon">\\n  <link rel="apple-touch-icon" href="\', escape=False)'
p85
sI22
S"response.write(URL('static','images/favicon.png'))"
p86
sI23
S'response.write(\'">\\n\\n  <!-- All JavaScript at the bottom, except for Modernizr which enables\\n       HTML5 elements & feature detects -->\\n  \', escape=False)'
p87
sI24
S'es=db(db.events.id>0).select()'
p88
sI25
S"response.write('\\n  ', escape=False)"
p89
sI26
S'es=[("%s at <br>%s"% (e.name,e.venue+", "+e.state_)) for e in es]'
p90
sI27
S'response.write(\'\\n  <script type="text/javascript">\\n  $("#search_bar").click(function(){\\n    console.log("Hello");\\n  });\\n  $(function(){\\n\\n    $("#search_bar").keypress(function(e) {\\n         if(e.which == 13) {\\n              if ($(this).val().length != 0 ){\\n                  setTimeout(function(){\\n                        var a=$("#search_bar").val();\\n                        console.log(a);\\n                        var url=a.split(" at");\\n                        var urlf=url[0].replace(" ","_");\\n                        console.log(urlf);\\n                        window.open(\', escape=False)'
p91
sI28
S"response.write(URL('event',urlf))"
p92
sI29
S'response.write(\',"_self");\\n                    },400);\\n                }\\n          }\\n      });\\n  });\\n  \\n  </script>\\n  \', escape=False)'
p93
sI30
S'response.menu += ['
p94
sI31
S'(XML(\'<input id="search_bar" type="text" class="span3" style="margin: 0 auto;" data-provide="typeahead" data-items="%i" data-source="%s" data-source2="[&quot;Ahmedabad&quot;,&quot;Akola&quot;,&quot;Asansol&quot;,&quot;Aurangabad&quot;,&quot;Bangaluru&quot;,&quot;Baroda&quot;,&quot;Belgaon&quot;,&quot;Berhumpur&quot;,&quot;Calicut&quot;,&quot;Chennai&quot;,&quot;Chapra&quot;,&quot;Cherapunji&quot;]">\'% (len(es),str(es).replace(\'\\\'\',\'&quot;\')) ), False, \'\', []),'
p95
ssg69
S'()'
p96
sg71
S'<module>'
p97
sasS'pyver'
p98
S'Python 2.7: C:\\Users\\Shubham\\Desktop\\web2py_hacku\\web2py\\web2py.exe (prefix: C:\\Users\\Shubham\\Desktop\\web2py_hacku\\web2py)'
p99
sS'session'
p100
g57
(S's\xed\x07\x00\x00<div><table><tr><td style="font-weight:bold;vertical-align:top">auth</td><td valign="top">:</td><td><div><table><tr><td style="font-weight:bold;vertical-align:top">expiration</td><td valign="top">:</td><td><div>3600</div></td></tr><tr><td style="font-weight:bold;vertical-align:top">hmac_key</td><td valign="top">:</td><td><div>340ea4a5-0595-4ed4-b48a-296109e8abaf</div></td></tr><tr><td style="font-weight:bold;vertical-align:top">last_visit</td><td valign="top">:</td><td><div>datetime.datetime(2013, 8, 11, 9, 43, 47, 561000)</div></td></tr><tr><td style="font-weight:bold;vertical-align:top">remember</td><td valign="top">:</td><td><div>False</div></td></tr><tr><td style="font-weight:bold;vertical-align:top">user</td><td valign="top">:</td><td><div><table><tr><td style="font-weight:bold;vertical-align:top">email</td><td valign="top">:</td><td><div>ak47thelegend@gmail.com</div></td></tr><tr><td style="font-weight:bold;vertical-align:top">first_name</td><td valign="top">:</td><td><div>Abhishek</div></td></tr><tr><td style="font-weight:bold;vertical-align:top">id</td><td valign="top">:</td><td><div>2L</div></td></tr><tr><td style="font-weight:bold;vertical-align:top">last_name</td><td valign="top">:</td><td><div>Kumar</div></td></tr><tr><td style="font-weight:bold;vertical-align:top">registration_id</td><td valign="top">:</td><td><div></div></td></tr><tr><td style="font-weight:bold;vertical-align:top">registration_key</td><td valign="top">:</td><td><div></div></td></tr><tr><td style="font-weight:bold;vertical-align:top">reset_password_key</td><td valign="top">:</td><td><div></div></td></tr></table></div></td></tr><tr><td style="font-weight:bold;vertical-align:top">user_groups</td><td valign="top">:</td><td><div><table><tr><td style="font-weight:bold;vertical-align:top">2</td><td valign="top">:</td><td><div>user_2</div></td></tr></table></div></td></tr></table></div></td></tr><tr><td style="font-weight:bold;vertical-align:top">flash</td><td valign="top">:</td><td><div>None</div></td></tr></table></div>'
tRp101
sS'etype'
p102
S"<type 'exceptions.NameError'>"
p103
sS'date'
p104
S'Sun Aug 11 09:46:59 2013'
p105
sS'response'
p106
g57
(S's\xeb\x17\x00\x00<div><table><tr><td style="font-weight:bold;vertical-align:top">body</td><td valign="top">:</td><td><div>&lt;cStringIO.StringO object at 0x067DC2E0&gt;</div></td></tr><tr><td style="font-weight:bold;vertical-align:top">cookies</td><td valign="top">:</td><td><div><table><tr><td style="font-weight:bold;vertical-align:top">session_id_evento</td><td valign="top">:</td><td><div>127.0.0.1-7249b82c-65ab-4266-a5c1-1f59495110eb<table><tr><td style="font-weight:bold;vertical-align:top">comment</td><td valign="top">:</td><td><div></div></td></tr><tr><td style="font-weight:bold;vertical-align:top">domain</td><td valign="top">:</td><td><div></div></td></tr><tr><td style="font-weight:bold;vertical-align:top">expires</td><td valign="top">:</td><td><div></div></td></tr><tr><td style="font-weight:bold;vertical-align:top">httponly</td><td valign="top">:</td><td><div></div></td></tr><tr><td style="font-weight:bold;vertical-align:top">max-age</td><td valign="top">:</td><td><div></div></td></tr><tr><td style="font-weight:bold;vertical-align:top">path</td><td valign="top">:</td><td><div>/</div></td></tr><tr><td style="font-weight:bold;vertical-align:top">secure</td><td valign="top">:</td><td><div></div></td></tr><tr><td style="font-weight:bold;vertical-align:top">version</td><td valign="top">:</td><td><div></div></td></tr></table></div></td></tr></table></div></td></tr><tr><td style="font-weight:bold;vertical-align:top">delimiters</td><td valign="top">:</td><td><div><table><tr><td><div>{{</div></td></tr><tr><td><div>}}</div></td></tr></table></div></td></tr><tr><td style="font-weight:bold;vertical-align:top">files</td><td valign="top">:</td><td><div><table></table></div></td></tr><tr><td style="font-weight:bold;vertical-align:top">flash</td><td valign="top">:</td><td><div></div></td></tr><tr><td style="font-weight:bold;vertical-align:top">generic_patterns</td><td valign="top">:</td><td><div><table><tr><td><div>*</div></td></tr></table></div></td></tr><tr><td style="font-weight:bold;vertical-align:top">google_analytics_id</td><td valign="top">:</td><td><div>None</div></td></tr><tr><td style="font-weight:bold;vertical-align:top">headers</td><td valign="top">:</td><td><div><table><tr><td style="font-weight:bold;vertical-align:top">X-Powered-By</td><td valign="top">:</td><td><div>web2py</div></td></tr></table></div></td></tr><tr><td style="font-weight:bold;vertical-align:top">logo</td><td valign="top">:</td><td><div><a class="brand" href="/evento/default/index"><b>Evento</b></a></div></td></tr><tr><td style="font-weight:bold;vertical-align:top">menu</td><td valign="top">:</td><td><div><table><tr><td><div><table><tr><td><div>Events near by</div></td></tr><tr><td><div>False</div></td></tr><tr><td><div>/evento/default/eventsnearyou</div></td></tr><tr><td><div><table></table></div></td></tr></table></div></td></tr><tr><td><div><table><tr><td><div>About</div></td></tr><tr><td><div>False</div></td></tr><tr><td><div>/evento/default/about</div></td></tr><tr><td><div><table></table></div></td></tr></table></div></td></tr></table></div></td></tr><tr><td style="font-weight:bold;vertical-align:top">meta</td><td valign="top">:</td><td><div><table><tr><td style="font-weight:bold;vertical-align:top">author</td><td valign="top">:</td><td><div>Your Name &lt;you@example.com&gt;</div></td></tr><tr><td style="font-weight:bold;vertical-align:top">description</td><td valign="top">:</td><td><div>a cool new app</div></td></tr><tr><td style="font-weight:bold;vertical-align:top">generator</td><td valign="top">:</td><td><div>Web2py Web Framework</div></td></tr><tr><td style="font-weight:bold;vertical-align:top">keywords</td><td valign="top">:</td><td><div>web2py, python, framework</div></td></tr></table></div></td></tr><tr><td style="font-weight:bold;vertical-align:top">models_to_run</td><td valign="top">:</td><td><div><table><tr><td><div>^\\w+\\.py$</div></td></tr><tr><td><div>^default/\\w+\\.py$</div></td></tr><tr><td><div>^default/index/\\w+\\.py$</div></td></tr></table></div></td></tr><tr><td style="font-weight:bold;vertical-align:top">postprocessing</td><td valign="top">:</td><td><div><table></table></div></td></tr><tr><td style="font-weight:bold;vertical-align:top">session_cookie_expires</td><td valign="top">:</td><td><div>None</div></td></tr><tr><td style="font-weight:bold;vertical-align:top">session_data_name</td><td valign="top">:</td><td><div>session_data_evento</div></td></tr><tr><td style="font-weight:bold;vertical-align:top">session_file</td><td valign="top">:</td><td><div>&lt;open file &#x27;C:\\Users\\Shubham\\Desktop\\web2py_hacku\\web2py\\applications\\evento\\sessions\\127.0.0.1-7249b82c-65ab-4266-a5c1-1f59495110eb&#x27;, mode &#x27;rb+&#x27; at 0x067DA548&gt;</div></td></tr><tr><td style="font-weight:bold;vertical-align:top">session_filename</td><td valign="top">:</td><td><div>C:\\Users\\Shubham\\Desktop\\web2py_hacku\\web2py\\applications\\evento\\sessions\\127.0.0.1-7249b82c-65ab-4266-a5c1-1f59495110eb</div></td></tr><tr><td style="font-weight:bold;vertical-align:top">session_id</td><td valign="top">:</td><td><div>127.0.0.1-7249b82c-65ab-4266-a5c1-1f59495110eb</div></td></tr><tr><td style="font-weight:bold;vertical-align:top">session_id_name</td><td valign="top">:</td><td><div>session_id_evento</div></td></tr><tr><td style="font-weight:bold;vertical-align:top">session_locked</td><td valign="top">:</td><td><div>True</div></td></tr><tr><td style="font-weight:bold;vertical-align:top">session_new</td><td valign="top">:</td><td><div>False</div></td></tr><tr><td style="font-weight:bold;vertical-align:top">session_storage_type</td><td valign="top">:</td><td><div>file</div></td></tr><tr><td style="font-weight:bold;vertical-align:top">status</td><td valign="top">:</td><td><div>200</div></td></tr><tr><td style="font-weight:bold;vertical-align:top">subtitle</td><td valign="top">:</td><td><div>customize me!</div></td></tr><tr><td style="font-weight:bold;vertical-align:top">title</td><td valign="top">:</td><td><div>Evento</div></td></tr><tr><td style="font-weight:bold;vertical-align:top">view</td><td valign="top">:</td><td><div>default/index.html</div></td></tr></table></div>'
tRp107
sS'locals'
p108
(dp109
S'Service'
p110
S"<class 'gluon.tools.Service'>"
p111
sS'OBJECT'
p112
S"<class 'gluon.html.OBJECT'>"
p113
sS'SQLDB'
p114
S"<class 'gluon.dal.DAL'>"
p115
sg100
S"<Storage {'_formkey[login]': '161b0a10-425e-4cfb...'', 'id': 2L}>, 'user_groups': {2L: 'user_2'}}>}>"
p116
sS'LINK'
p117
S"<class 'gluon.html.LINK'>"
p118
sS'BR'
p119
S"<class 'gluon.html.BR'>"
p120
sS'local_import'
p121
S'<function <lambda>>'
p122
sS'OPTGROUP'
p123
S"<class 'gluon.html.OPTGROUP'>"
p124
sS'__package__'
p125
S'None'
p126
sS'PRE'
p127
S"<class 'gluon.html.PRE'>"
p128
sS'IS_INT_IN_RANGE'
p129
S"<class 'gluon.validators.IS_INT_IN_RANGE'>"
p130
sS'left_sidebar_enabled'
p131
S'False'
p132
sS'IS_LOWER'
p133
S"<class 'gluon.validators.IS_LOWER'>"
p134
sS'IS_STRONG'
p135
S"<class 'gluon.validators.IS_STRONG'>"
p136
sS'cache'
p137
S'<gluon.cache.Cache object>'
p138
sS'IS_IN_DB'
p139
S"<class 'gluon.validators.IS_IN_DB'>"
p140
sS'TAG'
p141
S'<gluon.html.__TAG__ object>'
p142
sS'SQLField'
p143
S"<class 'gluon.dal.Field'>"
p144
sS'mail'
p145
S'<gluon.tools.Mail object>'
p146
sS'BODY'
p147
S"<class 'gluon.html.BODY'>"
p148
sS'IS_DATE_IN_RANGE'
p149
S"<class 'gluon.validators.IS_DATE_IN_RANGE'>"
p150
sS'IFRAME'
p151
S"<class 'gluon.html.IFRAME'>"
p152
sS'URL'
p153
S'<function URL>'
p154
sS'__file__'
p155
S"r'C:\\Users\\Shubham\\Desktop\\web2py_hacku\\web2py\\applications\\evento\\views\\default/index.html'"
p156
sS'db'
p157
S'<DAL uri="sqlite://storage.sqlite">'
p158
sS'auth'
p159
S'<gluon.tools.Auth object>'
p160
sS'choice'
p161
S'<bound method Random.choice of <random.Random object>>'
p162
sS'P'
S"<class 'gluon.html.P'>"
p163
sS'TFOOT'
p164
S"<class 'gluon.html.TFOOT'>"
p165
sS'timedelta'
p166
S"<type 'datetime.timedelta'>"
p167
sS'XHTML'
p168
S"<class 'gluon.html.XHTML'>"
p169
sS'datetime'
p170
S"<type 'datetime.datetime'>"
p171
sS'ON'
p172
S'True'
p173
sS'OL'
p174
S"<class 'gluon.html.OL'>"
p175
sS'TEXTAREA'
p176
S"<class 'gluon.html.TEXTAREA'>"
p177
sS'MENU'
p178
S"<class 'gluon.html.MENU'>"
p179
sS'EM'
p180
S"<class 'gluon.html.EM'>"
p181
sS'CODE'
p182
S"<class 'gluon.html.CODE'>"
p183
sS'HTTP'
p184
S"<class 'gluon.http.HTTP'>"
p185
sS'HR'
p186
S"<class 'gluon.html.HR'>"
p187
sS'IS_DATETIME'
p188
S"<class 'gluon.validators.IS_DATETIME'>"
p189
sS'STYLE'
p190
S"<class 'gluon.html.STYLE'>"
p191
sS'LABEL'
p192
S"<class 'gluon.html.LABEL'>"
p193
sS'CLEANUP'
p194
S"<class 'gluon.validators.CLEANUP'>"
p195
sS'plugins'
p196
S'<gluon.tools.PluginManager object>'
p197
sS'SELECT'
p198
S"<class 'gluon.html.SELECT'>"
p199
sS'use_janrain'
p200
S'<function use_janrain>'
p201
sS'CENTER'
p202
S"<class 'gluon.html.CENTER'>"
p203
sS'prettydate'
p204
S'<function prettydate>'
p205
sS'Crud'
p206
S"<class 'gluon.tools.Crud'>"
p207
sS'Auth'
p208
S"<class 'gluon.tools.Auth'>"
p209
sS'DEVELOPMENT_MENU'
p210
g173
sS'__builtins__'
p211
S"{'ArithmeticError': <type 'exceptions.ArithmeticError'>, 'AssertionError': <type 'exceptions.AssertionError'>, 'AttributeError': <type 'exceptions.AttributeError'>, 'BaseException': <type 'exceptions.BaseException'>, 'BufferError': <type 'exceptions.BufferError'>, 'BytesWarning': <type 'exceptions.BytesWarning'>, 'DeprecationWarning': <type 'exceptions.DeprecationWarning'>, 'EOFError': <type 'exceptions.EOFError'>, 'Ellipsis': Ellipsis, 'EnvironmentError': <type 'exceptions.EnvironmentError'>, ...}"
p212
sS'HTML'
p213
S"<class 'gluon.html.HTML'>"
p214
sS'SQLFORM'
p215
S"<class 'gluon.sqlhtml.SQLFORM'>"
p216
sS'LOAD'
p217
S'<function LOAD>'
p218
sS'redirect'
p219
S'<function redirect>'
p220
sS'FIELDSET'
p221
S"<class 'gluon.html.FIELDSET'>"
p222
sS'IS_EQUAL_TO'
p223
S"<class 'gluon.validators.IS_EQUAL_TO'>"
p224
sS'embed64'
p225
S'<function embed64>'
p226
sS'IS_LIST_OF'
p227
S"<class 'gluon.validators.IS_LIST_OF'>"
p228
sS'INPUT'
p229
S"<class 'gluon.html.INPUT'>"
p230
sS'EMBED'
p231
S"<class 'gluon.html.EMBED'>"
p232
sS'_'
S'<function _>'
p233
sS'FORM'
p234
S"<class 'gluon.html.FORM'>"
p235
sS'readable_time'
p236
S'<function readable_time>'
p237
sS'H2'
p238
S"<class 'gluon.html.H2'>"
p239
sS'H3'
p240
S"<class 'gluon.html.H3'>"
p241
sS'BUTTON'
p242
S"<class 'gluon.html.BUTTON'>"
p243
sS'H1'
p244
S"<class 'gluon.html.H1'>"
p245
sS'H6'
p246
S"<class 'gluon.html.H6'>"
p247
sS'H4'
p248
S"<class 'gluon.html.H4'>"
p249
sS'H5'
p250
S"<class 'gluon.html.H5'>"
p251
sS'UL'
p252
S"<class 'gluon.html.UL'>"
p253
sS'IS_UPPER'
p254
S"<class 'gluon.validators.IS_UPPER'>"
p255
sS'xmlescape'
p256
S'<function xmlescape>'
p257
sS'IS_TIME'
p258
S"<class 'gluon.validators.IS_TIME'>"
p259
sS'OPTION'
p260
S"<class 'gluon.html.OPTION'>"
p261
sS'TITLE'
p262
S"<class 'gluon.html.TITLE'>"
p263
sS'CRYPT'
p264
S"<class 'gluon.validators.CRYPT'>"
p265
sS'IS_EMPTY_OR'
p266
S"<class 'gluon.validators.IS_EMPTY_OR'>"
p267
sS'MARKMIN'
p268
S"<class 'gluon.html.MARKMIN'>"
p269
sS'__name__'
p270
S"'__restricted__'"
p271
sS'message'
p272
S"<lazyT 'Hello World'>"
p273
sS'STRONG'
p274
S"<class 'gluon.html.STRONG'>"
p275
sS'COL'
p276
S"<class 'gluon.html.COL'>"
p277
sS'service'
p278
S'<gluon.tools.Service object>'
p279
sS'SCRIPT'
p280
S"<class 'gluon.html.SCRIPT'>"
p281
sS'TABLE'
p282
S"<class 'gluon.html.TABLE'>"
p283
sS'IS_IPV4'
p284
S"<class 'gluon.validators.IS_IPV4'>"
p285
sS'IS_LENGTH'
p286
S"<class 'gluon.validators.IS_LENGTH'>"
p287
sS'IS_IPV6'
p288
S"<class 'gluon.validators.IS_IPV6'>"
p289
sS'XML'
p290
S"<class 'gluon.html.XML'>"
p291
sS'B'
S"<class 'gluon.html.B'>"
p292
sS'IMG'
p293
S"<class 'gluon.html.IMG'>"
p294
sS'SQLTABLE'
p295
S"<class 'gluon.sqlhtml.SQLTABLE'>"
p296
sS'IS_MATCH'
p297
S"<class 'gluon.validators.IS_MATCH'>"
p298
sS'IS_ALPHANUMERIC'
p299
S"<class 'gluon.validators.IS_ALPHANUMERIC'>"
p300
sS'SPAN'
p301
S"<class 'gluon.html.SPAN'>"
p302
sS'IS_JSON'
p303
S"<class 'gluon.validators.IS_JSON'>"
p304
sS'IS_IPADDRESS'
p305
S"<class 'gluon.validators.IS_IPADDRESS'>"
p306
sS'IS_SLUG'
p307
S"<class 'gluon.validators.IS_SLUG'>"
p308
sS'BEAUTIFY'
p309
S"<class 'gluon.html.BEAUTIFY'>"
p310
sS'META'
p311
S"<class 'gluon.html.META'>"
p312
sS'IS_DATE'
p313
S"<class 'gluon.validators.IS_DATE'>"
p314
sS'IS_EMAIL'
p315
S"<class 'gluon.validators.IS_EMAIL'>"
p316
sS'IS_NOT_EMPTY'
p317
S"<class 'gluon.validators.IS_NOT_EMPTY'>"
p318
sS'IS_FLOAT_IN_RANGE'
p319
S"<class 'gluon.validators.IS_FLOAT_IN_RANGE'>"
p320
sS'TBODY'
p321
S"<class 'gluon.html.TBODY'>"
p322
sS'CAT'
p323
S"<class 'gluon.html.CAT'>"
p324
sS'Field'
p325
S"<class 'gluon.dal.Field'>"
p326
sS'DIV'
p327
S"<class 'gluon.html.DIV'>"
p328
sS'LEGEND'
p329
S"<class 'gluon.html.LEGEND'>"
p330
sS'COLGROUP'
p331
S"<class 'gluon.html.COLGROUP'>"
p332
sS'DAL'
p333
S"<class 'gluon.dal.DAL'>"
p334
sS'TT'
p335
S"<class 'gluon.html.TT'>"
p336
sS'TR'
p337
S"<class 'gluon.html.TR'>"
p338
sS'LI'
p339
S"<class 'gluon.html.LI'>"
p340
sS'right_sidebar_enabled'
p341
g132
sS'es'
p342
S"['Hack U at <br>Seminar Hall, New Delhi', 'Hackathon at <br>Dogra Hall, New Delhi', 'Indian Open at <br>R K Khanna Tennis Stadium, New Delhi', 'Indo-french fashion festival at <br>Gopal Banquet Hall, New Delhi', 'Counter Strike Event at <br>Exibition Hall, New Delhi']"
p343
sS'TH'
p344
S"<class 'gluon.html.TH'>"
p345
sS'TD'
p346
S"<class 'gluon.html.TD'>"
p347
sS'PluginManager'
p348
S"<class 'gluon.tools.PluginManager'>"
p349
sS'IS_URL'
p350
S"<class 'gluon.validators.IS_URL'>"
p351
sS'events'
p352
S'<Rows (5)>'
p353
sS'A'
S"<class 'gluon.html.A'>"
p354
sS'HEAD'
p355
S"<class 'gluon.html.HEAD'>"
p356
sS'IS_DATETIME_IN_RANGE'
p357
S"<class 'gluon.validators.IS_DATETIME_IN_RANGE'>"
p358
sS'IS_IMAGE'
p359
S"<class 'gluon.validators.IS_IMAGE'>"
p360
sS'I'
S"<class 'gluon.html.I'>"
p361
sS'crud'
p362
S'<gluon.tools.Crud object>'
p363
sS'IS_NOT_IN_DB'
p364
S"<class 'gluon.validators.IS_NOT_IN_DB'>"
p365
sg106
S"<Storage {'body': <cStringIO.StringO object at 0...a> at 0x067711B0>, 'view': 'default/index.html'}>"
p366
sS'THEAD'
p367
S"<class 'gluon.html.THEAD'>"
p368
sS'ANY_OF'
p369
S"<class 'gluon.validators.ANY_OF'>"
p370
sS'IS_NULL_OR'
p371
S"<class 'gluon.validators.IS_EMPTY_OR'>"
p372
sS'e'
S"<Row {'pincode': '110062', 'o_website': 'langame... 'street_address': 'Delhi Technical University'}>"
p373
sg56
S"<Storage {'function': 'index', 'body': <cStringI...lications\\\\evento\\\\', 'post_vars': <Storage {}>}>"
p374
sS'IS_EXPR'
p375
S"<class 'gluon.validators.IS_EXPR'>"
p376
sS'T'
S'<gluon.languages.translator object>'
p377
sS'IS_IN_SET'
p378
S"<class 'gluon.validators.IS_IN_SET'>"
p379
sS'IS_UPLOAD_FILENAME'
p380
S"<class 'gluon.validators.IS_UPLOAD_FILENAME'>"
p381
sS'IS_DECIMAL_IN_RANGE'
p382
S"<class 'gluon.validators.IS_DECIMAL_IN_RANGE'>"
p383
sssS'traceback'
p384
S'Traceback (most recent call last):\n  File "/home/mdipierro/make_web2py/web2py/gluon/restricted.py", line 212, in restricted\n  File "C:\\Users\\Shubham\\Desktop\\web2py_hacku\\web2py\\applications\\evento\\views\\default/index.html", line 28, in <module>\nNameError: name \'urlf\' is not defined\n'
p385
s.